; Function Attrs: mustprogress nofree nounwind willreturn memory(write, argmem: readwrite) uwtable
define void @_ZNK3g2o23RobustKernelPseudoHuber9robustifyEdRN5Eigen6MatrixIdLi3ELi1ELi0ELi3ELi1EEE(ptr noundef nonnull readonly align 8 captures(none) dereferenceable(16) %0, double noundef %1, ptr noundef nonnull writeonly align 8 captures(none) dereferenceable(24) initializes((0, 24)) %2) unnamed_addr #6 align 2 personality ptr @__gxx_personality_v0 {
  %4 = getelementptr inbounds nuw i8, ptr %0, i64 8
  %5 = load double, ptr %4, align 8, !tbaa !21
  %6 = fmul double %5, %5
  %7 = fdiv double 1.000000e+00, %6
  %8 = tail call double @llvm.fmuladd.f64(double %7, double %1, double 1.000000e+00)
  %9 = tail call double @sqrt(double noundef %8) #21, !tbaa !15
  %10 = fmul double %6, 2.000000e+00
  %11 = fadd double %9, -1.000000e+00
  %12 = fmul double %10, %11
  store double %12, ptr %2, align 8, !tbaa !24
  %13 = fdiv double 1.000000e+00, %9
  %14 = getelementptr inbounds nuw i8, ptr %2, i64 8
  store double %13, ptr %14, align 8, !tbaa !24
  %15 = fmul double %7, -5.000000e-01
  %16 = fmul double %13, %15
  %17 = fdiv double %16, %8
  %18 = getelementptr inbounds nuw i8, ptr %2, i64 16
  store double %17, ptr %18, align 8, !tbaa !24
  ret void
}